target datalayout = "e-m:e-p270:32:32-p271:32:32-p272:64:64-i64:64-i128:128-f80:128-n8:16:32:64-S128"
target triple = "x86_64-pc-linux-gnu"

@cuddRand = internal global i64 0, align 8
@cuddRand2 = internal global i64 0, align 8
@shuffleSelect = internal global i64 0, align 8
@shuffleTable = internal global [64 x i64] zeroinitializer, align 16

; Function Attrs: nounwind uwtable
define void @Cudd_Srandom(i64 noundef %0) #0 {
  %2 = alloca i64, align 8
  %3 = alloca i32, align 4
  %4 = alloca i64, align 8
  store i64 %0, ptr %2, align 8
  %5 = load i64, ptr %2, align 8
  %6 = icmp slt i64 %5, 0
  br i1 %6, label %7, label %10

7:                                                ; preds = %1
  %8 = load i64, ptr %2, align 8
  %9 = sub nsw i64 0, %8
  store i64 %9, ptr @cuddRand, align 8
  br label %17

10:                                               ; preds = %1
  %11 = load i64, ptr %2, align 8
  %12 = icmp eq i64 %11, 0
  br i1 %12, label %13, label %14

13:                                               ; preds = %10
  store i64 1, ptr @cuddRand, align 8
  br label %16

14:                                               ; preds = %10
  %15 = load i64, ptr %2, align 8
  store i64 %15, ptr @cuddRand, align 8
  br label %16

16:                                               ; preds = %14, %13
  br label %17

17:                                               ; preds = %16, %7
  %18 = load i64, ptr @cuddRand, align 8
  store i64 %18, ptr @cuddRand2, align 8
  store i32 0, ptr %3, align 4
  br label %19

19:                                               ; preds = %45, %17
  %20 = load i32, ptr %3, align 4
  %21 = icmp slt i32 %20, 75
  br i1 %21, label %22, label %48

22:                                               ; preds = %19
  %23 = load i64, ptr @cuddRand, align 8
  %24 = sdiv i64 %23, 53668
  store i64 %24, ptr %4, align 8
  %25 = load i64, ptr @cuddRand, align 8
  %26 = load i64, ptr %4, align 8
  %27 = mul nsw i64 %26, 53668
  %28 = sub nsw i64 %25, %27
  %29 = mul nsw i64 40014, %28
  %30 = load i64, ptr %4, align 8
  %31 = mul nsw i64 %30, 12211
  %32 = sub nsw i64 %29, %31
  store i64 %32, ptr @cuddRand, align 8
  %33 = load i64, ptr @cuddRand, align 8
  %34 = icmp slt i64 %33, 0
  %35 = zext i1 %34 to i32
  %36 = mul nsw i32 %35, 2147483563
  %37 = sext i32 %36 to i64
  %38 = load i64, ptr @cuddRand, align 8
  %39 = add nsw i64 %38, %37
  store i64 %39, ptr @cuddRand, align 8
  %40 = load i64, ptr @cuddRand, align 8
  %41 = load i32, ptr %3, align 4
  %42 = srem i32 %41, 64
  %43 = sext i32 %42 to i64
  %44 = getelementptr inbounds [64 x i64], ptr @shuffleTable, i64 0, i64 %43
  store i64 %40, ptr %44, align 8
  br label %45

45:                                               ; preds = %22
  %46 = load i32, ptr %3, align 4
  %47 = add nsw i32 %46, 1
  store i32 %47, ptr %3, align 4
  br label %19, !llvm.loop !78

48:                                               ; preds = %19
  %49 = getelementptr inbounds [64 x i64], ptr @shuffleTable, i64 0, i64 1
  %50 = load i64, ptr %49, align 8
  store i64 %50, ptr @shuffleSelect, align 8
  ret void
}

; Function Attrs: nounwind uwtable
define i64 @Cudd_Random() #0 {
  %1 = alloca i32, align 4
  %2 = alloca i64, align 8
  %3 = load i64, ptr @cuddRand, align 8
  %4 = icmp eq i64 %3, 0
  br i1 %4, label %5, label %6

5:                                                ; preds = %0
  call void @Cudd_Srandom(i64 noundef 1)
  br label %6

6:                                                ; preds = %5, %0
  %7 = load i64, ptr @cuddRand, align 8
  %8 = sdiv i64 %7, 53668
  store i64 %8, ptr %2, align 8
  %9 = load i64, ptr @cuddRand, align 8
  %10 = load i64, ptr %2, align 8
  %11 = mul nsw i64 %10, 53668
  %12 = sub nsw i64 %9, %11
  %13 = mul nsw i64 40014, %12
  %14 = load i64, ptr %2, align 8
  %15 = mul nsw i64 %14, 12211
  %16 = sub nsw i64 %13, %15
  store i64 %16, ptr @cuddRand, align 8
  %17 = load i64, ptr @cuddRand, align 8
  %18 = icmp slt i64 %17, 0
  %19 = zext i1 %18 to i32
  %20 = mul nsw i32 %19, 2147483563
  %21 = sext i32 %20 to i64
  %22 = load i64, ptr @cuddRand, align 8
  %23 = add nsw i64 %22, %21
  store i64 %23, ptr @cuddRand, align 8
  %24 = load i64, ptr @cuddRand2, align 8
  %25 = sdiv i64 %24, 52774
  store i64 %25, ptr %2, align 8
  %26 = load i64, ptr @cuddRand2, align 8
  %27 = load i64, ptr %2, align 8
  %28 = mul nsw i64 %27, 52774
  %29 = sub nsw i64 %26, %28
  %30 = mul nsw i64 40692, %29
  %31 = load i64, ptr %2, align 8
  %32 = mul nsw i64 %31, 3791
  %33 = sub nsw i64 %30, %32
  store i64 %33, ptr @cuddRand2, align 8
  %34 = load i64, ptr @cuddRand2, align 8
  %35 = icmp slt i64 %34, 0
  %36 = zext i1 %35 to i32
  %37 = mul nsw i32 %36, 2147483399
  %38 = sext i32 %37 to i64
  %39 = load i64, ptr @cuddRand2, align 8
  %40 = add nsw i64 %39, %38
  store i64 %40, ptr @cuddRand2, align 8
  %41 = load i64, ptr @shuffleSelect, align 8
  %42 = sdiv i64 %41, 33554431
  %43 = trunc i64 %42 to i32
  store i32 %43, ptr %1, align 4
  %44 = load i32, ptr %1, align 4
  %45 = sext i32 %44 to i64
  %46 = getelementptr inbounds [64 x i64], ptr @shuffleTable, i64 0, i64 %45
  %47 = load i64, ptr %46, align 8
  %48 = load i64, ptr @cuddRand2, align 8
  %49 = sub nsw i64 %47, %48
  store i64 %49, ptr @shuffleSelect, align 8
  %50 = load i64, ptr @cuddRand, align 8
  %51 = load i32, ptr %1, align 4
  %52 = sext i32 %51 to i64
  %53 = getelementptr inbounds [64 x i64], ptr @shuffleTable, i64 0, i64 %52
  store i64 %50, ptr %53, align 8
  %54 = load i64, ptr @shuffleSelect, align 8
  %55 = icmp slt i64 %54, 1
  %56 = zext i1 %55 to i32
  %57 = mul nsw i32 %56, 2147483562
  %58 = sext i32 %57 to i64
  %59 = load i64, ptr @shuffleSelect, align 8
  %60 = add nsw i64 %59, %58
  store i64 %60, ptr @shuffleSelect, align 8
  %61 = load i64, ptr @shuffleSelect, align 8
  %62 = sub nsw i64 %61, 1
  ret i64 %62
}