; Function Attrs: nofree norecurse nosync nounwind memory(readwrite, argmem: read, inaccessiblemem: none) uwtable
define range(i64 -9223372036854775808, 9223372036854775807) i64 @Cudd_Random() local_unnamed_addr #9 {
  %1 = load i64, ptr @cuddRand, align 8
  %2 = icmp eq i64 %1, 0
  br i1 %2, label %.preheader, label %._crit_edge

._crit_edge:                                      ; preds = %0
  %.pre = load i64, ptr @cuddRand2, align 8
  br label %Cudd_Srandom.exit

.preheader:                                       ; preds = %0, %.preheader
  %.011.i = phi i32 [ %13, %.preheader ], [ 0, %0 ]
  %3 = phi i64 [ %9, %.preheader ], [ 1, %0 ]
  %4 = sdiv i64 %3, 53668
  %.neg.i = mul nsw i64 %4, -53668
  %5 = add i64 %.neg.i, %3
  %6 = mul nsw i64 %5, 40014
  %.neg10.i = mul nsw i64 %4, -12211
  %7 = add i64 %6, %.neg10.i
  %isneg.i = icmp slt i64 %7, 0
  %8 = select i1 %isneg.i, i64 2147483563, i64 0
  %9 = add nsw i64 %8, %7
  %10 = and i32 %.011.i, 63
  %11 = zext nneg i32 %10 to i64
  %12 = getelementptr inbounds nuw [64 x i64], ptr @shuffleTable, i64 0, i64 %11
  store i64 %9, ptr %12, align 8
  %13 = add nuw nsw i32 %.011.i, 1
  %exitcond.not.i = icmp eq i32 %13, 75
  br i1 %exitcond.not.i, label %Cudd_Srandom.exit, label %.preheader, !llvm.loop !28

Cudd_Srandom.exit:                                ; preds = %.preheader, %._crit_edge
  %.in = phi ptr [ @shuffleSelect, %._crit_edge ], [ getelementptr inbounds nuw (i8, ptr @shuffleTable, i64 8), %.preheader ]
  %14 = phi i64 [ %.pre, %._crit_edge ], [ 1, %.preheader ]
  %15 = phi i64 [ %1, %._crit_edge ], [ 477372060, %.preheader ]
  %16 = load i64, ptr %.in, align 8
  %17 = sdiv i64 %15, 53668
  %.neg = mul nsw i64 %17, -53668
  %18 = add i64 %.neg, %15
  %19 = mul nsw i64 %18, 40014
  %.neg6 = mul nsw i64 %17, -12211
  %20 = add i64 %19, %.neg6
  %isneg = icmp slt i64 %20, 0
  %21 = select i1 %isneg, i64 2147483563, i64 0
  %22 = add nsw i64 %21, %20
  store i64 %22, ptr @cuddRand, align 8
  %23 = sdiv i64 %14, 52774
  %.neg7 = mul nsw i64 %23, -52774
  %24 = add i64 %.neg7, %14
  %25 = mul nsw i64 %24, 40692
  %.neg8 = mul nsw i64 %23, -3791
  %26 = add i64 %25, %.neg8
  %isneg9 = icmp slt i64 %26, 0
  %27 = select i1 %isneg9, i64 2147483399, i64 0
  %28 = add nsw i64 %27, %26
  store i64 %28, ptr @cuddRand2, align 8
  %29 = sdiv i64 %16, 33554431
  %sext = shl i64 %29, 32
  %30 = ashr exact i64 %sext, 32
  %31 = getelementptr inbounds [64 x i64], ptr @shuffleTable, i64 0, i64 %30
  %32 = load i64, ptr %31, align 8
  %33 = sub nsw i64 %32, %28
  store i64 %22, ptr %31, align 8
  %.inv = icmp sgt i64 %33, 0
  %34 = select i1 %.inv, i64 0, i64 2147483562
  %35 = add nsw i64 %34, %33
  store i64 %35, ptr @shuffleSelect, align 8
  %36 = add nsw i64 %35, -1
  ret i64 %36
}